; Function Attrs: mustprogress nounwind uwtable
define hidden void @_ZNK5clang7targets19CygwinARMTargetInfo16getTargetDefinesERKNS_11LangOptionsERNS_12MacroBuilderE(ptr noundef nonnull align 8 dereferenceable(624) %0, ptr noundef nonnull align 8 dereferenceable(841) %1, ptr noundef nonnull align 8 dereferenceable(8) %2) unnamed_addr #0 align 2 {
  %4 = alloca %"class.llvm::Twine", align 8
  %5 = alloca %"class.llvm::Twine", align 8
  %6 = alloca %"class.llvm::Twine", align 8
  %7 = alloca %"class.llvm::Twine", align 8
  %8 = alloca %"class.llvm::Twine", align 8
  %9 = alloca %"class.llvm::Twine", align 8
  %10 = alloca %"class.llvm::Twine", align 8
  %11 = alloca %"class.llvm::Twine", align 8
  %12 = alloca %"class.llvm::Twine", align 8
  %13 = alloca %"class.llvm::Twine", align 8
  call void @llvm.lifetime.start.p0(i64 40, ptr nonnull %4)
  call void @llvm.lifetime.start.p0(i64 40, ptr nonnull %5)
  %14 = getelementptr inbounds nuw i8, ptr %4, i64 32
  %15 = getelementptr inbounds nuw i8, ptr %4, i64 33
  store i8 1, ptr %15, align 1
  store ptr @.str.315, ptr %4, align 8
  store i8 3, ptr %14, align 8
  %16 = getelementptr inbounds nuw i8, ptr %5, i64 32
  %17 = getelementptr inbounds nuw i8, ptr %5, i64 33
  store i8 1, ptr %17, align 1
  store ptr @.str.116, ptr %5, align 8
  store i8 3, ptr %16, align 8
  call void @_ZN5clang12MacroBuilder11defineMacroERKN4llvm5TwineES4_(ptr noundef nonnull align 8 dereferenceable(8) %2, ptr noundef nonnull align 8 dereferenceable(34) %4, ptr noundef nonnull align 8 dereferenceable(34) %5)
  call void @_ZNK5clang7targets13ARMTargetInfo16getTargetDefinesERKNS_11LangOptionsERNS_12MacroBuilderE(ptr noundef nonnull align 8 dereferenceable(624) %0, ptr noundef nonnull readonly align 8 dereferenceable(841) %1, ptr noundef nonnull align 8 dereferenceable(8) %2)
  call void @llvm.lifetime.end.p0(i64 40, ptr nonnull %4)
  call void @llvm.lifetime.end.p0(i64 40, ptr nonnull %5)
  %18 = getelementptr inbounds nuw i8, ptr %6, i64 32
  %19 = getelementptr inbounds nuw i8, ptr %6, i64 33
  store i8 1, ptr %19, align 1
  store ptr @.str.324, ptr %6, align 8
  store i8 3, ptr %18, align 8
  %20 = getelementptr inbounds nuw i8, ptr %7, i64 32
  %21 = getelementptr inbounds nuw i8, ptr %7, i64 33
  store i8 1, ptr %21, align 1
  store ptr @.str.116, ptr %7, align 8
  store i8 3, ptr %20, align 8
  call void @_ZN5clang12MacroBuilder11defineMacroERKN4llvm5TwineES4_(ptr noundef nonnull align 8 dereferenceable(8) %2, ptr noundef nonnull align 8 dereferenceable(34) %6, ptr noundef nonnull align 8 dereferenceable(34) %7)
  %22 = getelementptr inbounds nuw i8, ptr %8, i64 32
  %23 = getelementptr inbounds nuw i8, ptr %8, i64 33
  store i8 1, ptr %23, align 1
  store ptr @.str.325, ptr %8, align 8
  store i8 3, ptr %22, align 8
  %24 = getelementptr inbounds nuw i8, ptr %9, i64 32
  %25 = getelementptr inbounds nuw i8, ptr %9, i64 33
  store i8 1, ptr %25, align 1
  store ptr @.str.116, ptr %9, align 8
  store i8 3, ptr %24, align 8
  call void @_ZN5clang12MacroBuilder11defineMacroERKN4llvm5TwineES4_(ptr noundef nonnull align 8 dereferenceable(8) %2, ptr noundef nonnull align 8 dereferenceable(34) %8, ptr noundef nonnull align 8 dereferenceable(34) %9)
  %26 = getelementptr inbounds nuw i8, ptr %10, i64 32
  %27 = getelementptr inbounds nuw i8, ptr %10, i64 33
  store i8 1, ptr %27, align 1
  store ptr @.str.326, ptr %10, align 8
  store i8 3, ptr %26, align 8
  %28 = getelementptr inbounds nuw i8, ptr %11, i64 32
  %29 = getelementptr inbounds nuw i8, ptr %11, i64 33
  store i8 1, ptr %29, align 1
  store ptr @.str.116, ptr %11, align 8
  store i8 3, ptr %28, align 8
  call void @_ZN5clang12MacroBuilder11defineMacroERKN4llvm5TwineES4_(ptr noundef nonnull align 8 dereferenceable(8) %2, ptr noundef nonnull align 8 dereferenceable(34) %10, ptr noundef nonnull align 8 dereferenceable(34) %11)
  call void @_ZN5clang7targets9DefineStdERNS_12MacroBuilderEN4llvm9StringRefERKNS_11LangOptionsE(ptr noundef nonnull align 8 dereferenceable(8) %2, ptr nonnull @.str.327, i64 4, ptr noundef nonnull align 8 dereferenceable(841) %1) #24
  %30 = load i64, ptr %1, align 8
  %31 = and i64 %30, 2048
  %.not = icmp eq i64 %31, 0
  br i1 %.not, label %37, label %32

32:                                               ; preds = %3
  %33 = getelementptr inbounds nuw i8, ptr %12, i64 32
  %34 = getelementptr inbounds nuw i8, ptr %12, i64 33
  store i8 1, ptr %34, align 1
  store ptr @.str.120, ptr %12, align 8
  store i8 3, ptr %33, align 8
  %35 = getelementptr inbounds nuw i8, ptr %13, i64 32
  %36 = getelementptr inbounds nuw i8, ptr %13, i64 33
  store i8 1, ptr %36, align 1
  store ptr @.str.116, ptr %13, align 8
  store i8 3, ptr %35, align 8
  call void @_ZN5clang12MacroBuilder11defineMacroERKN4llvm5TwineES4_(ptr noundef nonnull align 8 dereferenceable(8) %2, ptr noundef nonnull align 8 dereferenceable(34) %12, ptr noundef nonnull align 8 dereferenceable(34) %13)
  br label %37

37:                                               ; preds = %32, %3
  ret void
}